Certificate:
    Data:
        Version: 3 (0x2)
        Serial Number: 4 (0x4)
    Signature Algorithm: sha256WithRSAEncryption
        Issuer: C=IN, ST=squid_ssl_testing, L=New Delhi, O=Squid_ssl_testing, OU=cert_issuer_server, CN=squid.ssl.test/emailAddress=root@squid.ssl.test
        Validity
            Not Before: Aug 12 13:34:13 2017 GMT
            Not After : Aug 12 13:34:13 2018 GMT
        Subject: C=IN, ST=Delhi, O=raswall , OU=login https, CN=login.raswall
        Subject Public Key Info:
            Public Key Algorithm: rsaEncryption
                Public-Key: (2048 bit)
                Modulus:
                    00:d1:cf:fa:fd:1f:dd:54:e3:42:09:cf:39:51:ae:
                    bc:4d:c1:86:66:c3:8c:4c:2f:d0:e3:2d:b1:b0:a9:
                    b6:13:4e:a6:af:cc:b8:35:a9:64:c5:93:83:7d:44:
                    12:b7:e2:6d:a8:ea:fe:d2:67:5a:95:bc:c5:b6:7f:
                    35:06:cd:5b:00:10:b0:41:73:11:2d:d1:9d:91:11:
                    14:46:0c:ca:69:db:34:c6:95:54:84:69:fc:29:3e:
                    54:f9:c9:b1:2e:3c:4e:45:43:38:03:80:91:34:c9:
                    ad:6c:df:b7:25:cb:2f:18:4a:ac:7d:1f:5c:3f:df:
                    fc:8b:7b:44:c7:36:29:e1:ba:74:95:b5:7f:1e:62:
                    c2:ca:ca:03:38:72:c9:b5:0b:68:6a:60:80:f0:76:
                    06:6f:3b:b2:aa:63:c5:d0:f7:46:19:95:8e:d1:d2:
                    f3:6c:71:7c:94:a7:b9:73:b5:05:fc:a3:f1:f3:e1:
                    aa:05:e3:56:5a:88:17:39:c6:53:9e:09:30:57:e6:
                    d3:fd:1e:1d:31:e3:37:82:25:55:05:cb:cd:ac:65:
                    be:b3:40:5d:0a:b9:dc:4f:8d:36:88:d6:81:b8:97:
                    3d:35:f5:8d:37:fa:0d:b5:6b:9b:40:4e:a5:56:ec:
                    aa:24:72:73:8b:3d:4c:6b:c1:4e:0e:3b:ba:9b:57:
                    6a:df
                Exponent: 65537 (0x10001)
        X509v3 extensions:
            X509v3 Basic Constraints: 
                CA:FALSE
            Netscape Comment: 
                OpenSSL Generated Certificate
            X509v3 Subject Key Identifier: 
                B2:C0:F4:60:24:2B:DD:CF:E7:68:08:B3:A3:AC:CD:A7:49:6D:DE:C2
            X509v3 Authority Key Identifier: 
                keyid:34:87:2F:36:A3:B8:7A:77:F1:9F:BD:A5:0B:DD:12:05:A9:FE:5F:60

    Signature Algorithm: sha256WithRSAEncryption
         57:df:5a:47:9d:77:46:e4:46:ac:f3:31:68:5e:76:19:f6:79:
         30:8b:78:c3:90:d8:d6:d7:fb:10:f8:e2:98:64:8e:8b:35:f0:
         d2:2e:bd:67:1a:1b:29:ff:42:d2:66:73:49:30:35:dd:64:07:
         8c:14:2d:a7:f6:9a:da:c6:0c:d0:ef:f0:69:ae:c2:12:6b:5e:
         f5:e6:f2:0b:3c:c3:3b:6c:b7:56:ad:77:c8:40:09:53:48:86:
         d9:b6:a8:63:a3:5f:2b:db:b8:f0:3a:e9:ea:4e:c8:69:81:9a:
         c5:b9:9b:4b:70:cf:9f:ab:84:1b:f4:86:f5:b4:5a:3a:61:bd:
         dd:63
-----BEGIN CERTIFICATE-----
MIIDhzCCAvCgAwIBAgIBBDANBgkqhkiG9w0BAQsFADCBszELMAkGA1UEBhMCSU4x
GjAYBgNVBAgMEXNxdWlkX3NzbF90ZXN0aW5nMRIwEAYDVQQHDAlOZXcgRGVsaGkx
GjAYBgNVBAoMEVNxdWlkX3NzbF90ZXN0aW5nMRswGQYDVQQLDBJjZXJ0X2lzc3Vl
cl9zZXJ2ZXIxFzAVBgNVBAMMDnNxdWlkLnNzbC50ZXN0MSIwIAYJKoZIhvcNAQkB
FhNyb290QHNxdWlkLnNzbC50ZXN0MB4XDTE3MDgxMjEzMzQxM1oXDTE4MDgxMjEz
MzQxM1owXjELMAkGA1UEBhMCSU4xDjAMBgNVBAgMBURlbGhpMREwDwYDVQQKDAhy
YXN3YWxsIDEUMBIGA1UECwwLbG9naW4gaHR0cHMxFjAUBgNVBAMMDWxvZ2luLnJh
c3dhbGwwggEiMA0GCSqGSIb3DQEBAQUAA4IBDwAwggEKAoIBAQDRz/r9H91U40IJ
zzlRrrxNwYZmw4xML9DjLbGwqbYTTqavzLg1qWTFk4N9RBK34m2o6v7SZ1qVvMW2
fzUGzVsAELBBcxEt0Z2RERRGDMpp2zTGlVSEafwpPlT5ybEuPE5FQzgDgJE0ya1s
37clyy8YSqx9H1w/3/yLe0THNinhunSVtX8eYsLKygM4csm1C2hqYIDwdgZvO7Kq
Y8XQ90YZlY7R0vNscXyUp7lztQX8o/Hz4aoF41ZaiBc5xlOeCTBX5tP9Hh0x4zeC
JVUFy82sZb6zQF0KudxPjTaI1oG4lz019Y03+g21a5tATqVW7KokcnOLPUxrwU4O
O7qbV2rfAgMBAAGjezB5MAkGA1UdEwQCMAAwLAYJYIZIAYb4QgENBB8WHU9wZW5T
U0wgR2VuZXJhdGVkIENlcnRpZmljYXRlMB0GA1UdDgQWBBSywPRgJCvdz+doCLOj
rM2nSW3ewjAfBgNVHSMEGDAWgBQ0hy82o7h6d/GfvaUL3RIFqf5fYDANBgkqhkiG
9w0BAQsFAAOBgQBX31pHnXdG5Eas8zFoXnYZ9nkwi3jDkNjW1/sQ+OKYZI6LNfDS
Lr1nGhsp/0LSZnNJMDXdZAeMFC2n9praxgzQ7/BprsISa1715vILPMM7bLdWrXfI
QAlTSIbZtqhjo18r27jwOunqTshpgZrFuZtLcM+fq4Qb9Ib1tFo6Yb3dYw==
-----END CERTIFICATE-----
